; ModuleID = '40/268.c'
source_filename = "40/268.c"
target datalayout = "e-m:e-p270:32:32-p271:32:32-p272:64:64-i64:64-f80:128-n8:16:32:64-S128"
target triple = "x86_64-pc-linux-gnu"

@.str = private unnamed_addr constant [16 x i8] c"%lf%lf%lf%lf%lf\00", align 1
@.str.1 = private unnamed_addr constant [7 x i8] c"%.4lf\0A\00", align 1
@.str.2 = private unnamed_addr constant [15 x i8] c"Invalid input\0A\00", align 1

; Function Attrs: noinline nounwind uwtable
define dso_local i32 @main(i32 %0, i8** %1) #0 {
  %3 = alloca i32, align 4
  %4 = alloca i32, align 4
  %5 = alloca i8**, align 8
  %6 = alloca double, align 8
  %7 = alloca double, align 8
  %8 = alloca double, align 8
  %9 = alloca double, align 8
  %10 = alloca double, align 8
  %11 = alloca double, align 8
  %12 = alloca double, align 8
  %13 = alloca double, align 8
  store i32 0, i32* %3, align 4
  store i32 %0, i32* %4, align 4
  store i8** %1, i8*** %5, align 8
  %14 = call i32 (i8*, ...) @__isoc99_scanf(i8* getelementptr inbounds ([16 x i8], [16 x i8]* @.str, i64 0, i64 0), double* %6, double* %7, double* %8, double* %9, double* %10)
  store double 3.600000e+02, double* %13, align 8
  %15 = load double, double* %6, align 8
  %16 = load double, double* %7, align 8
  %17 = fadd double %15, %16
  %18 = load double, double* %8, align 8
  %19 = fadd double %17, %18
  %20 = load double, double* %9, align 8
  %21 = fadd double %19, %20
  %22 = fdiv double %21, 2.000000e+00
  store double %22, double* %11, align 8
  %23 = load double, double* %11, align 8
  %24 = load double, double* %6, align 8
  %25 = fsub double %23, %24
  %26 = load double, double* %11, align 8
  %27 = load double, double* %7, align 8
  %28 = fsub double %26, %27
  %29 = fmul double %25, %28
  %30 = load double, double* %11, align 8
  %31 = load double, double* %8, align 8
  %32 = fsub double %30, %31
  %33 = fmul double %29, %32
  %34 = load double, double* %11, align 8
  %35 = load double, double* %9, align 8
  %36 = fsub double %34, %35
  %37 = fmul double %33, %36
  %38 = load double, double* %6, align 8
  %39 = load double, double* %7, align 8
  %40 = fmul double %38, %39
  %41 = load double, double* %8, align 8
  %42 = fmul double %40, %41
  %43 = load double, double* %9, align 8
  %44 = fmul double %42, %43
  %45 = load double, double* %10, align 8
  %46 = fmul double %45, 1.000000e+02
  %47 = load double, double* %13, align 8
  %48 = fdiv double %46, %47
  %49 = call double @cos(double %48) #3
  %50 = fmul double %44, %49
  %51 = load double, double* %10, align 8
  %52 = fmul double %51, 1.000000e+02
  %53 = load double, double* %13, align 8
  %54 = fdiv double %52, %53
  %55 = call double @cos(double %54) #3
  %56 = fmul double %50, %55
  %57 = fsub double %37, %56
  %58 = call double @sqrt(double %57) #3
  store double %58, double* %12, align 8
  %59 = load double, double* %11, align 8
  %60 = load double, double* %6, align 8
  %61 = fsub double %59, %60
  %62 = load double, double* %11, align 8
  %63 = load double, double* %7, align 8
  %64 = fsub double %62, %63
  %65 = fmul double %61, %64
  %66 = load double, double* %11, align 8
  %67 = load double, double* %8, align 8
  %68 = fsub double %66, %67
  %69 = fmul double %65, %68
  %70 = load double, double* %11, align 8
  %71 = load double, double* %9, align 8
  %72 = fsub double %70, %71
  %73 = fmul double %69, %72
  %74 = load double, double* %6, align 8
  %75 = load double, double* %7, align 8
  %76 = fmul double %74, %75
  %77 = load double, double* %8, align 8
  %78 = fmul double %76, %77
  %79 = load double, double* %9, align 8
  %80 = fmul double %78, %79
  %81 = load double, double* %10, align 8
  %82 = fmul double %81, 1.000000e+02
  %83 = load double, double* %13, align 8
  %84 = fdiv double %82, %83
  %85 = call double @cos(double %84) #3
  %86 = fmul double %80, %85
  %87 = load double, double* %10, align 8
  %88 = fmul double %87, 1.000000e+02
  %89 = load double, double* %13, align 8
  %90 = fdiv double %88, %89
  %91 = call double @cos(double %90) #3
  %92 = fmul double %86, %91
  %93 = fsub double %73, %92
  %94 = fcmp ogt double %93, 0.000000e+00
  br i1 %94, label %95, label %98

95:                                               ; preds = %2
  %96 = load double, double* %12, align 8
  %97 = call i32 (i8*, ...) @printf(i8* getelementptr inbounds ([7 x i8], [7 x i8]* @.str.1, i64 0, i64 0), double %96)
  br label %100

98:                                               ; preds = %2
  %99 = call i32 (i8*, ...) @printf(i8* getelementptr inbounds ([15 x i8], [15 x i8]* @.str.2, i64 0, i64 0))
  br label %100

100:                                              ; preds = %98, %95
  ret i32 0
}

declare dso_local i32 @__isoc99_scanf(i8*, ...) #1

; Function Attrs: nounwind
declare dso_local double @sqrt(double) #2

; Function Attrs: nounwind
declare dso_local double @cos(double) #2

declare dso_local i32 @printf(i8*, ...) #1


!llvm.module.flags = !{!0}
!llvm.ident = !{!1}

!0 = !{i32 1, !"wchar_size", i32 4}
!1 = !{!"clang version 10.0.0-4ubuntu1 "}
